; Function Attrs: mustprogress uwtable
define noundef i32 @_ZNK6casadi17GetNonzerosVector7eval_sxEPPKNS_6SXElemEPPS1_PxS5_(ptr nocapture noundef nonnull readonly align 8 dereferenceable(88) %0, ptr nocapture noundef readonly %1, ptr nocapture noundef readonly %2, ptr nocapture readnone %3, ptr nocapture readnone %4) unnamed_addr #3 align 2 personality ptr @__gxx_personality_v0 {
  %6 = alloca %"class.casadi::SXElem", align 8
  call void @llvm.lifetime.start.p0(i64 8, ptr nonnull %6)
  %7 = load ptr, ptr %1, align 8
  %8 = getelementptr inbounds i8, ptr %0, i64 64
  %9 = load ptr, ptr %8, align 8
  %10 = getelementptr inbounds i8, ptr %0, i64 72
  %11 = load ptr, ptr %10, align 8
  %.not14.i = icmp eq ptr %9, %11
  br i1 %.not14.i, label %_ZNK6casadi17GetNonzerosVector8eval_genINS_6SXElemEEEiPKPKT_PKPS3_PxS8_.exit, label %.lr.ph.preheader.i

.lr.ph.preheader.i:                               ; preds = %5
  %12 = load ptr, ptr %2, align 8
  br label %.lr.ph.i

.lr.ph.i:                                         ; preds = %20, %.lr.ph.preheader.i
  %.016.i = phi ptr [ %21, %20 ], [ %12, %.lr.ph.preheader.i ]
  %.sroa.011.015.i = phi ptr [ %22, %20 ], [ %9, %.lr.ph.preheader.i ]
  %13 = load i64, ptr %.sroa.011.015.i, align 8
  %14 = icmp sgt i64 %13, -1
  br i1 %14, label %15, label %17

15:                                               ; preds = %.lr.ph.i
  %16 = getelementptr inbounds %"class.casadi::SXElem", ptr %7, i64 %13
  call void @_ZN6casadi6SXElemC1ERKS0_(ptr noundef nonnull align 8 dereferenceable(8) %6, ptr noundef nonnull align 8 dereferenceable(8) %16)
  br label %18

17:                                               ; preds = %.lr.ph.i
  call void @_ZN6casadi6SXElemC1Ed(ptr noundef nonnull align 8 dereferenceable(8) %6, double noundef 0.000000e+00)
  br label %18

18:                                               ; preds = %17, %15
  %19 = invoke noundef nonnull align 8 dereferenceable(8) ptr @_ZN6casadi6SXElemaSERKS0_(ptr noundef nonnull align 8 dereferenceable(8) %.016.i, ptr noundef nonnull align 8 dereferenceable(8) %6)
          to label %20 unwind label %23

20:                                               ; preds = %18
  %21 = getelementptr inbounds i8, ptr %.016.i, i64 8
  call void @_ZN6casadi6SXElemD1Ev(ptr noundef nonnull align 8 dereferenceable(8) %6) #22
  %22 = getelementptr inbounds i8, ptr %.sroa.011.015.i, i64 8
  %.not.i = icmp eq ptr %22, %11
  br i1 %.not.i, label %_ZNK6casadi17GetNonzerosVector8eval_genINS_6SXElemEEEiPKPKT_PKPS3_PxS8_.exit, label %.lr.ph.i

23:                                               ; preds = %18
  %24 = landingpad { ptr, i32 }
          cleanup
  call void @_ZN6casadi6SXElemD1Ev(ptr noundef nonnull align 8 dereferenceable(8) %6) #22
  resume { ptr, i32 } %24

_ZNK6casadi17GetNonzerosVector8eval_genINS_6SXElemEEEiPKPKT_PKPS3_PxS8_.exit: ; preds = %20, %5
  call void @llvm.lifetime.end.p0(i64 8, ptr nonnull %6)
  ret i32 0
}